target datalayout = "e-m:e-p270:32:32-p271:32:32-p272:64:64-i64:64-i128:128-f80:128-n8:16:32:64-S128"
target triple = "x86_64-pc-linux-gnu"

%struct.AVFilterContext = type { ptr, ptr, ptr, ptr, ptr, i32, ptr, ptr, i32, ptr, ptr, i32, i32, ptr, ptr, ptr, ptr, i32, ptr, i32, i32 }
%struct.SilenceRemoveContext = type { ptr, i32, i32, i64, i64, double, i64, i64, i32, i32, i64, i64, double, i64, i64, i64, i32, i32, i32, i32, i32, i32, i32, ptr, ptr, ptr, ptr, ptr, ptr, i64, i32, i32, i32, i32, i32, ptr, ptr, ptr, i32, i32, ptr, i32, i32, i32, i32, i64, i32, ptr, ptr }
%struct.AVRational = type { i32, i32 }
%struct.AVChannelLayout = type { i32, i32, %union.anon.1, ptr }
%union.anon.1 = type { i64 }
%struct.AVFilterLink = type { ptr, ptr, ptr, ptr, i32, i32, i32, i32, %struct.AVRational, i32, i32, i32, %struct.AVChannelLayout, %struct.AVRational, ptr, i32, %struct.AVFilterFormatsConfig, %struct.AVFilterFormatsConfig }
%struct.AVFilterFormatsConfig = type { ptr, ptr, ptr, ptr, ptr }

; Function Attrs: nounwind uwtable
define internal i32 @config_input(ptr noundef %0) #2 {
  %2 = alloca ptr, align 8
  %3 = alloca ptr, align 8
  %4 = alloca ptr, align 8
  store ptr %0, ptr %2, align 8, !tbaa !32
  call void @llvm.lifetime.start.p0(i64 8, ptr %3) #7
  %5 = load ptr, ptr %2, align 8, !tbaa !32
  %6 = getelementptr inbounds nuw %struct.AVFilterLink, ptr %5, i32 0, i32 2
  %7 = load ptr, ptr %6, align 8, !tbaa !51
  store ptr %7, ptr %3, align 8, !tbaa !4
  call void @llvm.lifetime.start.p0(i64 8, ptr %4) #7
  %8 = load ptr, ptr %3, align 8, !tbaa !4
  %9 = getelementptr inbounds nuw %struct.AVFilterContext, ptr %8, i32 0, i32 9
  %10 = load ptr, ptr %9, align 8, !tbaa !9
  store ptr %10, ptr %4, align 8, !tbaa !22
  %11 = load ptr, ptr %4, align 8, !tbaa !22
  %12 = getelementptr inbounds nuw %struct.SilenceRemoveContext, ptr %11, i32 0, i32 45
  store i64 -9223372036854775808, ptr %12, align 8, !tbaa !39
  %13 = load ptr, ptr %4, align 8, !tbaa !22
  %14 = getelementptr inbounds nuw %struct.SilenceRemoveContext, ptr %13, i32 0, i32 15
  %15 = load i64, ptr %14, align 8, !tbaa !56
  %16 = load ptr, ptr %2, align 8, !tbaa !32
  %17 = getelementptr inbounds nuw %struct.AVFilterLink, ptr %16, i32 0, i32 11
  %18 = load i32, ptr %17, align 8, !tbaa !57
  %19 = sext i32 %18 to i64
  %20 = call i64 @av_rescale(i64 noundef %15, i64 noundef %19, i64 noundef 1000000) #8
  %21 = load ptr, ptr %4, align 8, !tbaa !22
  %22 = getelementptr inbounds nuw %struct.SilenceRemoveContext, ptr %21, i32 0, i32 29
  store i64 %20, ptr %22, align 8, !tbaa !58
  %23 = load ptr, ptr %4, align 8, !tbaa !22
  %24 = getelementptr inbounds nuw %struct.SilenceRemoveContext, ptr %23, i32 0, i32 29
  %25 = load i64, ptr %24, align 8, !tbaa !58
  %26 = icmp sgt i64 1, %25
  br i1 %26, label %27, label %28

27:                                               ; preds = %1
  br label %32

28:                                               ; preds = %1
  %29 = load ptr, ptr %4, align 8, !tbaa !22
  %30 = getelementptr inbounds nuw %struct.SilenceRemoveContext, ptr %29, i32 0, i32 29
  %31 = load i64, ptr %30, align 8, !tbaa !58
  br label %32

32:                                               ; preds = %28, %27
  %33 = phi i64 [ 1, %27 ], [ %31, %28 ]
  %34 = load ptr, ptr %4, align 8, !tbaa !22
  %35 = getelementptr inbounds nuw %struct.SilenceRemoveContext, ptr %34, i32 0, i32 29
  store i64 %33, ptr %35, align 8, !tbaa !58
  %36 = load ptr, ptr %4, align 8, !tbaa !22
  %37 = getelementptr inbounds nuw %struct.SilenceRemoveContext, ptr %36, i32 0, i32 4
  %38 = load i64, ptr %37, align 8, !tbaa !59
  %39 = load ptr, ptr %2, align 8, !tbaa !32
  %40 = getelementptr inbounds nuw %struct.AVFilterLink, ptr %39, i32 0, i32 11
  %41 = load i32, ptr %40, align 8, !tbaa !57
  %42 = sext i32 %41 to i64
  %43 = call i64 @av_rescale(i64 noundef %38, i64 noundef %42, i64 noundef 1000000) #8
  %44 = load ptr, ptr %4, align 8, !tbaa !22
  %45 = getelementptr inbounds nuw %struct.SilenceRemoveContext, ptr %44, i32 0, i32 3
  store i64 %43, ptr %45, align 8, !tbaa !60
  %46 = load ptr, ptr %4, align 8, !tbaa !22
  %47 = getelementptr inbounds nuw %struct.SilenceRemoveContext, ptr %46, i32 0, i32 7
  %48 = load i64, ptr %47, align 8, !tbaa !61
  %49 = load ptr, ptr %2, align 8, !tbaa !32
  %50 = getelementptr inbounds nuw %struct.AVFilterLink, ptr %49, i32 0, i32 11
  %51 = load i32, ptr %50, align 8, !tbaa !57
  %52 = sext i32 %51 to i64
  %53 = call i64 @av_rescale(i64 noundef %48, i64 noundef %52, i64 noundef 1000000) #8
  %54 = load ptr, ptr %4, align 8, !tbaa !22
  %55 = getelementptr inbounds nuw %struct.SilenceRemoveContext, ptr %54, i32 0, i32 6
  store i64 %53, ptr %55, align 8, !tbaa !62
  %56 = load ptr, ptr %4, align 8, !tbaa !22
  %57 = getelementptr inbounds nuw %struct.SilenceRemoveContext, ptr %56, i32 0, i32 11
  %58 = load i64, ptr %57, align 8, !tbaa !63
  %59 = load ptr, ptr %2, align 8, !tbaa !32
  %60 = getelementptr inbounds nuw %struct.AVFilterLink, ptr %59, i32 0, i32 11
  %61 = load i32, ptr %60, align 8, !tbaa !57
  %62 = sext i32 %61 to i64
  %63 = call i64 @av_rescale(i64 noundef %58, i64 noundef %62, i64 noundef 1000000) #8
  %64 = load ptr, ptr %4, align 8, !tbaa !22
  %65 = getelementptr inbounds nuw %struct.SilenceRemoveContext, ptr %64, i32 0, i32 10
  store i64 %63, ptr %65, align 8, !tbaa !64
  %66 = load ptr, ptr %4, align 8, !tbaa !22
  %67 = getelementptr inbounds nuw %struct.SilenceRemoveContext, ptr %66, i32 0, i32 14
  %68 = load i64, ptr %67, align 8, !tbaa !65
  %69 = load ptr, ptr %2, align 8, !tbaa !32
  %70 = getelementptr inbounds nuw %struct.AVFilterLink, ptr %69, i32 0, i32 11
  %71 = load i32, ptr %70, align 8, !tbaa !57
  %72 = sext i32 %71 to i64
  %73 = call i64 @av_rescale(i64 noundef %68, i64 noundef %72, i64 noundef 1000000) #8
  %74 = load ptr, ptr %4, align 8, !tbaa !22
  %75 = getelementptr inbounds nuw %struct.SilenceRemoveContext, ptr %74, i32 0, i32 13
  store i64 %73, ptr %75, align 8, !tbaa !66
  %76 = load ptr, ptr %4, align 8, !tbaa !22
  %77 = getelementptr inbounds nuw %struct.SilenceRemoveContext, ptr %76, i32 0, i32 17
  store i32 0, ptr %77, align 4, !tbaa !37
  %78 = load ptr, ptr %4, align 8, !tbaa !22
  %79 = getelementptr inbounds nuw %struct.SilenceRemoveContext, ptr %78, i32 0, i32 18
  store i32 0, ptr %79, align 8, !tbaa !67
  call void @llvm.lifetime.end.p0(i64 8, ptr %4) #7
  call void @llvm.lifetime.end.p0(i64 8, ptr %3) #7
  ret i32 0
}