; Function Attrs: mustprogress nofree nosync nounwind willreturn memory(readwrite, inaccessiblemem: none) uwtable
define internal noundef i32 @config_input(ptr noundef readonly captures(none) %0) #4 {
  %2 = getelementptr inbounds nuw i8, ptr %0, i64 16
  %3 = load ptr, ptr %2, align 8, !tbaa !67
  %4 = getelementptr inbounds nuw i8, ptr %3, i64 72
  %5 = load ptr, ptr %4, align 8, !tbaa !4
  %6 = getelementptr inbounds nuw i8, ptr %5, i64 280
  store i64 -9223372036854775808, ptr %6, align 8, !tbaa !35
  %7 = getelementptr inbounds nuw i8, ptr %5, i64 104
  %8 = load i64, ptr %7, align 8, !tbaa !68
  %9 = getelementptr inbounds nuw i8, ptr %0, i64 64
  %10 = load i32, ptr %9, align 8, !tbaa !69
  %11 = sext i32 %10 to i64
  %12 = tail call i64 @av_rescale(i64 noundef %8, i64 noundef %11, i64 noundef 1000000) #13
  %13 = getelementptr inbounds nuw i8, ptr %5, i64 192
  %spec.select = tail call i64 @llvm.smax.i64(i64 %12, i64 1)
  store i64 %spec.select, ptr %13, align 8, !tbaa !70
  %14 = getelementptr inbounds nuw i8, ptr %5, i64 24
  %15 = load i64, ptr %14, align 8, !tbaa !71
  %16 = tail call i64 @av_rescale(i64 noundef %15, i64 noundef %11, i64 noundef 1000000) #13
  %17 = getelementptr inbounds nuw i8, ptr %5, i64 16
  store i64 %16, ptr %17, align 8, !tbaa !72
  %18 = getelementptr inbounds nuw i8, ptr %5, i64 48
  %19 = load i64, ptr %18, align 8, !tbaa !73
  %20 = tail call i64 @av_rescale(i64 noundef %19, i64 noundef %11, i64 noundef 1000000) #13
  %21 = getelementptr inbounds nuw i8, ptr %5, i64 40
  store i64 %20, ptr %21, align 8, !tbaa !53
  %22 = getelementptr inbounds nuw i8, ptr %5, i64 72
  %23 = load i64, ptr %22, align 8, !tbaa !74
  %24 = tail call i64 @av_rescale(i64 noundef %23, i64 noundef %11, i64 noundef 1000000) #13
  %25 = getelementptr inbounds nuw i8, ptr %5, i64 64
  store i64 %24, ptr %25, align 8, !tbaa !75
  %26 = getelementptr inbounds nuw i8, ptr %5, i64 96
  %27 = load i64, ptr %26, align 8, !tbaa !76
  %28 = tail call i64 @av_rescale(i64 noundef %27, i64 noundef %11, i64 noundef 1000000) #13
  %29 = getelementptr inbounds nuw i8, ptr %5, i64 88
  store i64 %28, ptr %29, align 8, !tbaa !54
  %30 = getelementptr inbounds nuw i8, ptr %5, i64 116
  store i32 0, ptr %30, align 4, !tbaa !32
  %31 = getelementptr inbounds nuw i8, ptr %5, i64 120
  store i32 0, ptr %31, align 8, !tbaa !77
  ret i32 0
}